#include <math.h>
#include <stdio.h>
#include <stdlib.h>
#include <string.h>

int main()
{
	int a,b,i,c,days;
	int m[13]={0,31,28,31,30,31,30,31,31,30,31,30,31};
	scanf("%d%d%d",&a,&b,&c);
	days=0;
	if((a%4==0&&a%100!=0)||(a%400==0))
	{m[2]=29;
	for(i=0;i<b;i++)
	{days+=m[i];
	}
	printf("%d\n",days+c);
	}
	else
	{
		for(i=0;i<b;i++)
		{
			days+=m[i];
		}
		printf("%d\n",days+c);
	}
	return 0;
}
